target datalayout = "e-m:e-p270:32:32-p271:32:32-p272:64:64-i64:64-i128:128-f80:128-n8:16:32:64-S128"
target triple = "x86_64-pc-linux-gnu"

%class.mpff_manager = type <{ i32, i32, %class.svector, i32, i8, [3 x i8], %class.id_gen, [4 x %class.svector], %class.svector, %class.mpff, [8 x i8] }>
%class.id_gen = type { i32, %class.svector }
%class.svector = type { %class.vector }
%class.vector = type { ptr }
%class.mpff = type { i32, i32 }

; Function Attrs: mustprogress nounwind uwtable
define linkonce_odr hidden noundef zeroext i1 @_ZN12mpff_manager7is_zeroERK4mpff(ptr noundef nonnull align 4 dereferenceable(8) %0) #5 comdat align 2 {
  %2 = alloca ptr, align 8
  store ptr %0, ptr %2, align 8, !tbaa !29
  %3 = load ptr, ptr %2, align 8, !tbaa !29
  %4 = load i32, ptr %3, align 4
  %5 = lshr i32 %4, 1
  %6 = icmp eq i32 %5, 0
  ret i1 %6
}

; Function Attrs: mustprogress nounwind uwtable
define linkonce_odr hidden noundef ptr @_ZNK6vectorIjLb0EjE4dataEv(ptr noundef nonnull align 8 dereferenceable(8) %0) #5 comdat align 2 {
  %2 = alloca ptr, align 8
  store ptr %0, ptr %2, align 8, !tbaa !32
  %3 = load ptr, ptr %2, align 8
  %4 = getelementptr inbounds nuw %class.vector, ptr %3, i32 0, i32 0
  %5 = load ptr, ptr %4, align 8, !tbaa !35
  ret ptr %5
}

; Function Attrs: mustprogress nounwind uwtable
define linkonce_odr hidden noundef zeroext i1 @_ZN12mpff_manager6is_posERK4mpff(ptr noundef nonnull align 4 dereferenceable(8) %0) #5 comdat align 2 {
  %2 = alloca ptr, align 8
  store ptr %0, ptr %2, align 8, !tbaa !29
  %3 = load ptr, ptr %2, align 8, !tbaa !29
  %4 = load i32, ptr %3, align 4
  %5 = and i32 %4, 1
  %6 = icmp eq i32 %5, 0
  br i1 %6, label %7, label %11

7:                                                ; preds = %1
  %8 = load ptr, ptr %2, align 8, !tbaa !29
  %9 = call noundef zeroext i1 @_ZN12mpff_manager7is_zeroERK4mpff(ptr noundef nonnull align 4 dereferenceable(8) %8)
  %10 = xor i1 %9, true
  br label %11

11:                                               ; preds = %7, %1
  %12 = phi i1 [ false, %1 ], [ %10, %7 ]
  ret i1 %12
}

; Function Attrs: mustprogress uwtable
define linkonce_odr hidden noundef ptr @_ZNK12mpff_manager3sigERK4mpff(ptr noundef nonnull align 8 dereferenceable(89) %0, ptr noundef nonnull align 4 dereferenceable(8) %1) #4 comdat align 2 {
  %3 = alloca ptr, align 8
  %4 = alloca ptr, align 8
  store ptr %0, ptr %3, align 8, !tbaa !3
  store ptr %1, ptr %4, align 8, !tbaa !29
  %5 = load ptr, ptr %3, align 8
  %6 = getelementptr inbounds nuw %class.mpff_manager, ptr %5, i32 0, i32 2
  %7 = call noundef ptr @_ZNK6vectorIjLb0EjE4dataEv(ptr noundef nonnull align 8 dereferenceable(8) %6)
  %8 = load ptr, ptr %4, align 8, !tbaa !29
  %9 = load i32, ptr %8, align 4
  %10 = lshr i32 %9, 1
  %11 = getelementptr inbounds nuw %class.mpff_manager, ptr %5, i32 0, i32 0
  %12 = load i32, ptr %11, align 8, !tbaa !10
  %13 = mul i32 %10, %12
  %14 = zext i32 %13 to i64
  %15 = getelementptr inbounds nuw i32, ptr %7, i64 %14
  ret ptr %15
}

; Function Attrs: mustprogress uwtable
define hidden noundef zeroext i1 @_ZNK12mpff_manager15is_power_of_twoERK4mpff(ptr noundef nonnull align 8 dereferenceable(89) %0, ptr noundef nonnull align 4 dereferenceable(8) %1) #4 align 2 {
  %3 = alloca ptr, align 8
  %4 = alloca ptr, align 8
  %5 = alloca ptr, align 8
  store ptr %0, ptr %3, align 8, !tbaa !3
  store ptr %1, ptr %4, align 8, !tbaa !29
  %6 = load ptr, ptr %3, align 8
  call void @llvm.lifetime.start.p0(i64 8, ptr %5) #3
  %7 = load ptr, ptr %4, align 8, !tbaa !29
  %8 = call noundef ptr @_ZNK12mpff_manager3sigERK4mpff(ptr noundef nonnull align 8 dereferenceable(89) %6, ptr noundef nonnull align 4 dereferenceable(8) %7)
  store ptr %8, ptr %5, align 8, !tbaa !36
  %9 = load ptr, ptr %4, align 8, !tbaa !29
  %10 = call noundef zeroext i1 @_ZN12mpff_manager6is_posERK4mpff(ptr noundef nonnull align 4 dereferenceable(8) %9)
  br i1 %10, label %11, label %34

11:                                               ; preds = %2
  %12 = load ptr, ptr %4, align 8, !tbaa !29
  %13 = getelementptr inbounds nuw %class.mpff, ptr %12, i32 0, i32 1
  %14 = load i32, ptr %13, align 4, !tbaa !31
  %15 = getelementptr inbounds nuw %class.mpff_manager, ptr %6, i32 0, i32 1
  %16 = load i32, ptr %15, align 4, !tbaa !19
  %17 = sub nsw i32 0, %16
  %18 = icmp sgt i32 %14, %17
  br i1 %18, label %19, label %34

19:                                               ; preds = %11
  %20 = load ptr, ptr %5, align 8, !tbaa !36
  %21 = getelementptr inbounds nuw %class.mpff_manager, ptr %6, i32 0, i32 0
  %22 = load i32, ptr %21, align 8, !tbaa !10
  %23 = sub i32 %22, 1
  %24 = zext i32 %23 to i64
  %25 = getelementptr inbounds nuw i32, ptr %20, i64 %24
  %26 = load i32, ptr %25, align 4, !tbaa !8
  %27 = icmp eq i32 %26, -2147483648
  br i1 %27, label %28, label %34

28:                                               ; preds = %19
  %29 = getelementptr inbounds nuw %class.mpff_manager, ptr %6, i32 0, i32 0
  %30 = load i32, ptr %29, align 8, !tbaa !10
  %31 = sub i32 %30, 1
  %32 = load ptr, ptr %5, align 8, !tbaa !36
  %33 = call noundef zeroext i1 @_Z7is_zerojPKj(i32 noundef %31, ptr noundef %32)
  br label %34

34:                                               ; preds = %28, %19, %11, %2
  %35 = phi i1 [ false, %19 ], [ false, %11 ], [ false, %2 ], [ %33, %28 ]
  call void @llvm.lifetime.end.p0(i64 8, ptr %5) #3
  ret i1 %35
}

; Function Attrs: mustprogress uwtable
define hidden noundef zeroext i1 @_ZNK12mpff_manager15is_power_of_twoERK4mpffRj(ptr noundef nonnull align 8 dereferenceable(89) %0, ptr noundef nonnull align 4 dereferenceable(8) %1, ptr noundef nonnull align 4 dereferenceable(4) %2) #4 align 2 {
  %4 = alloca i1, align 1
  %5 = alloca ptr, align 8
  %6 = alloca ptr, align 8
  %7 = alloca ptr, align 8
  %8 = alloca i64, align 8
  store ptr %0, ptr %5, align 8, !tbaa !3
  store ptr %1, ptr %6, align 8, !tbaa !29
  store ptr %2, ptr %7, align 8, !tbaa !36
  %9 = load ptr, ptr %5, align 8
  %10 = load ptr, ptr %6, align 8, !tbaa !29
  %11 = call noundef zeroext i1 @_ZNK12mpff_manager15is_power_of_twoERK4mpff(ptr noundef nonnull align 8 dereferenceable(89) %9, ptr noundef nonnull align 4 dereferenceable(8) %10)
  br i1 %11, label %13, label %12

12:                                               ; preds = %3
  store i1 false, ptr %4, align 1
  br label %25

13:                                               ; preds = %3
  call void @llvm.lifetime.start.p0(i64 8, ptr %8) #3
  %14 = load ptr, ptr %6, align 8, !tbaa !29
  %15 = getelementptr inbounds nuw %class.mpff, ptr %14, i32 0, i32 1
  %16 = load i32, ptr %15, align 4, !tbaa !31
  %17 = getelementptr inbounds nuw %class.mpff_manager, ptr %9, i32 0, i32 1
  %18 = load i32, ptr %17, align 4, !tbaa !19
  %19 = add i32 %16, %18
  %20 = sub i32 %19, 1
  %21 = zext i32 %20 to i64
  store i64 %21, ptr %8, align 8, !tbaa !45
  %22 = load i64, ptr %8, align 8, !tbaa !45
  %23 = trunc i64 %22 to i32
  %24 = load ptr, ptr %7, align 8, !tbaa !36
  store i32 %23, ptr %24, align 4, !tbaa !8
  store i1 true, ptr %4, align 1
  call void @llvm.lifetime.end.p0(i64 8, ptr %8) #3
  br label %25

25:                                               ; preds = %13, %12
  %26 = load i1, ptr %4, align 1
  ret i1 %26
}