; Function Attrs: mustprogress uwtable
define hidden noundef zeroext i1 @_ZNK12mpff_manager15is_power_of_twoERK4mpffRj(ptr noundef nonnull readonly align 8 captures(none) dereferenceable(89) %0, ptr noundef nonnull readonly align 4 captures(none) dereferenceable(8) %1, ptr noundef nonnull writeonly align 4 captures(none) dereferenceable(4) %2) local_unnamed_addr #3 align 2 {
  %4 = getelementptr inbounds nuw i8, ptr %0, i64 8
  %5 = load ptr, ptr %4, align 8, !tbaa !3
  %6 = load i32, ptr %1, align 4
  %7 = lshr i32 %6, 1
  %8 = load i32, ptr %0, align 8, !tbaa !13
  %9 = mul i32 %7, %8
  %10 = zext i32 %9 to i64
  %11 = getelementptr inbounds nuw i32, ptr %5, i64 %10
  %12 = and i32 %6, 1
  %13 = icmp eq i32 %12, 0
  %14 = icmp ugt i32 %6, 1
  %15 = and i1 %14, %13
  br i1 %15, label %16, label %_ZNK12mpff_manager15is_power_of_twoERK4mpff.exit.thread

16:                                               ; preds = %3
  %17 = getelementptr inbounds nuw i8, ptr %1, i64 4
  %18 = load i32, ptr %17, align 4, !tbaa !35
  %19 = getelementptr inbounds nuw i8, ptr %0, i64 4
  %20 = load i32, ptr %19, align 4, !tbaa !18
  %21 = sub nsw i32 0, %20
  %22 = icmp sgt i32 %18, %21
  br i1 %22, label %23, label %_ZNK12mpff_manager15is_power_of_twoERK4mpff.exit.thread

23:                                               ; preds = %16
  %24 = add i32 %8, -1
  %25 = zext i32 %24 to i64
  %26 = getelementptr inbounds nuw i32, ptr %11, i64 %25
  %27 = load i32, ptr %26, align 4, !tbaa !21
  %28 = icmp eq i32 %27, -2147483648
  br i1 %28, label %_ZNK12mpff_manager15is_power_of_twoERK4mpff.exit, label %_ZNK12mpff_manager15is_power_of_twoERK4mpff.exit.thread

_ZNK12mpff_manager15is_power_of_twoERK4mpff.exit: ; preds = %23
  %29 = tail call noundef zeroext i1 @_Z7is_zerojPKj(i32 noundef %24, ptr noundef nonnull %11)
  br i1 %29, label %30, label %_ZNK12mpff_manager15is_power_of_twoERK4mpff.exit.thread

30:                                               ; preds = %_ZNK12mpff_manager15is_power_of_twoERK4mpff.exit
  %31 = load i32, ptr %17, align 4, !tbaa !35
  %32 = load i32, ptr %19, align 4, !tbaa !18
  %33 = add i32 %31, -1
  %34 = add i32 %33, %32
  store i32 %34, ptr %2, align 4, !tbaa !21
  br label %_ZNK12mpff_manager15is_power_of_twoERK4mpff.exit.thread

_ZNK12mpff_manager15is_power_of_twoERK4mpff.exit.thread: ; preds = %3, %16, %23, %_ZNK12mpff_manager15is_power_of_twoERK4mpff.exit, %30
  %35 = phi i1 [ false, %_ZNK12mpff_manager15is_power_of_twoERK4mpff.exit ], [ true, %30 ], [ false, %23 ], [ false, %16 ], [ false, %3 ]
  ret i1 %35
}